
_fn_4:     file format elf32-i386

Contents of section .text:
 0100 5589e583 ec3889c0 8945f88b 45f80500  U....8...E..E...
 0110 04000089 45fc83ec 0c6a008b 4510ffd0  ....E....j..E...
 0120 83c410c7 45f00000 0000817d f03f0100  ....E......}.?..
 0130 007e02eb 31c745ec 00000000 817decef  .~..1.E......}..
 0140 0000007e 02eb1883 ec08ff75 ecff75f0  ...~.......u..u.
 0150 8b4514ff d083c410 8d45ecff 00ebdd8d  .E.......E......
 0160 45f0ff00 ebc4c745 ec000000 00c745e4  E......E......E.
 0170 00000000 c745e000 00000081 7df800f4  .....E......}...
 0180 ffff740f 83ec0c6a 0e8b4510 ffd083c4  ..t....j..E.....
 0190 10eb05e9 f9010000 908b45e0 0345f805  ..........E..E..
 01a0 000c0000 8a108855 eb8d45e0 ff0084d2  .......U..E.....
 01b0 7505e999 00000080 7deb0a74 0b817dec  u.......}..t..}.
 01c0 37010000 7f02eb0d 8d45e483 0008c745  7........E.....E
 01d0 ec000000 00807deb 0a74bec7 45dc0000  ......}..t..E...
 01e0 0000837d dc077e02 eb5bc745 d8000000  ...}..~..[.E....
 01f0 00837dd8 077e02eb 450fbe45 ebc1e003  ..}..~..E..E....
 0200 0345dc03 45fc0fb6 10b80700 000089c1  .E..E...........
 0210 2b4dd889 d0d3f883 e00185c0 741983ec  +M..........t...
 0220 088b45dc 0345e450 8b45d803 45ec508b  ..E..E.P.E..E.P.
 0230 4514ffd0 83c4108d 45d8ff00 ebb38d45  E.......E......E
 0240 dcff00eb 9d8d45ec 830008e9 49ffffff  ......E.....I...
 0250 8b45f805 000c0000 8945d88b 45f80500  .E.......E..E...
 0260 0c000089 45dc8b45 d88945dc c745e000  ....E..E..E..E..
 0270 0000008b 45dc8038 007502eb 0c8d45dc  ....E..8.u....E.
 0280 ff008d45 e0ff00eb ea8d45e0 83001f8d  ...E......E.....
 0290 45e08320 e08b45e0 8945f4c7 45d80000  E.. ..E..E..E...
 02a0 0000c745 dc180000 00c745e0 00000000  ...E......E.....
 02b0 8b45f403 45f83d00 f4ffff74 0f83ec0c  .E..E.=....t....
 02c0 6a028b45 10ffd083 c410eb05 e9c00000  j..E............
 02d0 00908b45 f48b55f8 01c28b45 e08d0410  ...E..U....E....
 02e0 05000c00 008a1088 55eb8d45 e0ff0084  ........U..E....
 02f0 d27505e9 99000000 807deb0a 740b817d  .u.......}..t..}
 0300 d8370100 007f02eb 0d8d45dc 830008c7  .7........E.....
 0310 45d80000 0000807d eb0a74b6 c745ec00  E......}..t..E..
 0320 00000083 7dec077e 02eb5bc7 45e40000  ....}..~..[.E...
 0330 0000837d e4077e02 eb450fbe 45ebc1e0  ...}..~..E..E...
 0340 030345ec 0345fc0f b610b807 00000089  ..E..E..........
 0350 c12b4de4 89d0d3f8 83e00185 c0741983  .+M..........t..
 0360 ec088b45 ec0345dc 508b45e4 0345d850  ...E..E.P.E..E.P
 0370 8b4514ff d083c410 8d45e4ff 00ebb38d  .E.......E......
 0380 45ecff00 eb9d8d45 d8830008 e941ffff  E......E.....A..
 0390 ff8b45d4 c9c3                        ..E...          
Contents of section .data:
 0500 00000000 00000000 7e81a581 bd99817e  ........~......~
 0510 7effdbff c3e7ff7e 6cfefefe 7c381000  ~......~l...|8..
 0520 10387cfe 7c381000 387c38fe fed61038  .8|.|8..8|8....8
 0530 10387cfe fe7c1038 0000183c 3c180000  .8|..|.8...<<...
 0540 ffffe7c3 c3e7ffff 003c6642 42663c00  .........<fBBf<.
 0550 ffc399bd bd99c3ff 0f070f7d cccccc78  ...........}...x
 0560 3c666666 3c187e18 3f333f30 3070f0e0  <fff<.~.?3?00p..
 0570 7f637f63 6367e6c0 18db3ce7 e73cdb18  .c.ccg....<..<..
 0580 80e0f8fe f8e08000 020e3efe 3e0e0200  ..........>.>...
 0590 183c7e18 187e3c18 66666666 66006600  .<~..~<.fffff.f.
 05a0 7fdbdb7b 1b1b1b00 3e613c66 663c867c  ...{....>a<ff<.|
 05b0 00000000 7e7e7e00 183c7e18 7e3c18ff  ....~~~..<~.~<..
 05c0 183c7e18 18181800 18181818 7e3c1800  .<~.........~<..
 05d0 00180cfe 0c180000 003060fe 60300000  .........0`.`0..
 05e0 0000c0c0 c0fe0000 002466ff 66240000  .........$f.f$..
 05f0 00183c7e ffff0000 00ffff7e 3c180000  ..<~.......~<...
 0600 00000000 00000000 183c3c3c 18001800  .........<<<....
 0610 6c6c0000 00000000 6c6cfe6c fe6c6c00  ll......ll.l.ll.
 0620 183e603c 067c1800 00c6cc18 3066c600  .>`<.|......0f..
 0630 386c6876 dccc7600 18183000 00000000  8lhv..v...0.....
 0640 0c183030 30180c00 30180c0c 0c183000  ..000...0.....0.
 0650 00663cff 3c660000 0018187e 18180000  .f<.<f.....~....
 0660 00000000 00181830 0000007e 00000000  .......0...~....
 0670 00000000 00181800 03060c18 3060c000  ............0`..
 0680 7cc6defe f6c67c00 18781818 18181800  |.....|..x......
 0690 7cc60c18 3060fe00 7cc6061c 06c67c00  |...0`..|.....|.
 06a0 1c3c6ccc fe0c0c00 fec0fc06 06c67c00  .<l...........|.
 06b0 3860c0fc c6c67c00 fe060c18 30606000  8`....|.....0``.
 06c0 7cc6c67c c6c67c00 7cc6c67e 060c3800  |..|..|.|..~..8.
 06d0 00181800 00181800 00181800 00181830  ...............0
 06e0 0c183060 30180c00 00007e00 007e0000  ..0`0.....~..~..
 06f0 30180c06 0c183000 3c66060c 18001800  0.....0.<f......
 0700 7cc6dede dec07c00 10386cc6 fec6c600  |.....|..8l.....
 0710 fcc6c6fc c6c6fc00 7cc6c0c0 c0c67c00  ........|.....|.
 0720 fcc6c6c6 c6c6fc00 fec0c0f8 c0c0fe00  ................
 0730 fec0c0f8 c0c0c000 7cc6c0ce c6c67c00  ........|.....|.
 0740 c6c6c6fe c6c6c600 7e181818 18187e00  ........~.....~.
 0750 06060606 c6c67c00 c6ccd8f0 d8ccc600  ......|.........
 0760 c0c0c0c0 c0c0fe00 82c6eefe d6c6c600  ................
 0770 c6e6f6de cec6c600 7cc6c6c6 c6c67c00  ........|.....|.
 0780 fcc6c6fc c0c0c000 7cc6c6c6 f6de7c06  ........|.....|.
 0790 fcc6c6fc d8ccc600 7cc66038 0cc67c00  ........|.`8..|.
 07a0 7e181818 18181800 c6c6c6c6 c6c67c00  ~.............|.
 07b0 c3c36666 3c3c1800 c6c6c6d6 feeec600  ..ff<<..........
 07c0 c3663c18 3c66c300 c3c3663c 18181800  .f<.<f....f<....
 07d0 fe060c18 3060fe00 3c303030 30303c00  ....0`..<00000<.
 07e0 c0603018 0c060300 3c0c0c0c 0c0c3c00  .`0.....<.....<.
 07f0 10386cc6 00000000 00000000 000000fe  .8l.............
 0800 18180c00 00000000 00007c06 7ec67e00  ..........|.~.~.
 0810 c0c0fcc6 c6c6fc00 00007cc6 c0c67c00  ..........|...|.
 0820 06067ec6 c6c67e00 00007cc6 fec07c00  ..~...~...|...|.
 0830 3c6660f0 60606000 00007ec6 c67e067c  <f`.```...~..~.|
 0840 c0c0fcc6 c6c6c600 18003818 18181800  ..........8.....
 0850 06000606 0606c67c c0c0ccd8 f0d8cc00  .......|........
 0860 38181818 18181800 0000ecfe d6c6c600  8...............
 0870 0000fcc6 c6c6c600 00007cc6 c6c67c00  ..........|...|.
 0880 0000fcc6 c6fcc0c0 00007ec6 c67e0606  ..........~..~..
 0890 0000dce6 c0c0c000 00007ec0 7c06fc00  ..........~.|...
 08a0 30307c30 30361c00 0000c6c6 c6c67c00  00|006........|.
 08b0 0000c6c6 c66c3800 0000c6c6 d6fe6c00  .....l8.......l.
 08c0 0000c66c 386cc600 0000c366 3c183060  ...l8l.....f<.0`
 08d0 0000fe0c 3860fe00 0e181870 18180e00  ....8`.....p....
 08e0 18181818 18181800 7018180e 18187000  ........p.....p.
 08f0 729c0000 00000000 0010386c c6c6fe00  r.........8l....
 0900 7cc6c0c0 c67c0c78 cc00cccc cccc7600  |....|.x......v.
 0910 0c187cc6 fec07c00 7c82780c 7ccc7600  ..|...|.|.x.|.v.
 0920 c600780c 7ccc7600 3018780c 7ccc7600  ..x.|.v.0.x.|.v.
 0930 3030780c 7ccc7600 00007ec0 c07e0c38  00x.|.v...~..~.8
 0940 7c827cc6 fec07c00 c6007cc6 fec07c00  |.|...|...|...|.
 0950 30187cc6 fec07c00 66003818 18183c00  0.|...|.f.8...<.
 0960 7c823818 18183c00 30180038 18183c00  |.8...<.0..8..<.
 0970 c6386cc6 fec6c600 386c7cc6 fec6c600  .8l.....8l|.....
 0980 1830fec0 f8c0fe00 00007e18 7ed87e00  .0........~.~.~.
 0990 3e6cccfe ccccce00 7c827cc6 c6c67c00  >l......|.|...|.
 09a0 c6007cc6 c6c67c00 30187cc6 c6c67c00  ..|...|.0.|...|.
 09b0 788400cc cccc7600 6030cccc cccc7600  x.....v.`0....v.
 09c0 c600c6c6 c67e06fc c6386cc6 c66c3800  .....~...8l..l8.
 09d0 c600c6c6 c6c67c00 18187ec0 c07e1818  ......|...~..~..
 09e0 386c64f0 6066fc00 66663c7e 187e1818  8ld.`f..ff<~.~..
 09f0 f8ccccfa c6cfc6c7 0e1b183c 18d87000  ...........<..p.
 0a00 1830780c 7ccc7600 0c180038 18183c00  .0x.|.v....8..<.
 0a10 0c187cc6 c6c67c00 1830cccc cccc7600  ..|...|..0....v.
 0a20 76dc00dc 66666600 76dc00e6 f6dece00  v...fff.v.......
 0a30 3c6c6c3e 007e0000 386c6c38 007c0000  <ll>.~..8ll8.|..
 0a40 18001818 30633e00 000000fe c0c00000  ....0c>.........
 0a50 000000fe 06060000 63e66c7e 3366cc0f  ........c.l~3f..
 0a60 63e66c7a 366adf06 18001818 3c3c1800  c.lz6j......<<..
 0a70 003366cc 66330000 00cc6633 66cc0000  .3f.f3....f3f...
 0a80 22882288 22882288 55aa55aa 55aa55aa  ".".".".U.U.U.U.
 0a90 77dd77dd 77dd77dd 18181818 18181818  w.w.w.w.........
 0aa0 18181818 f8181818 1818f818 f8181818  ................
 0ab0 36363636 f6363636 00000000 fe363636  6666.666.....666
 0ac0 0000f818 f8181818 3636f606 f6363636  ........66...666
 0ad0 36363636 36363636 0000fe06 f6363636  66666666.....666
 0ae0 3636f606 fe000000 36363636 fe000000  66......6666....
 0af0 1818f818 f8000000 00000000 f8181818  ................
 0b00 18181818 1f000000 18181818 ff000000  ................
 0b10 00000000 ff181818 18181818 1f181818  ................
 0b20 00000000 ff000000 18181818 ff181818  ................
 0b30 18181f18 1f181818 36363636 37363636  ........66667666
 0b40 36363730 3f000000 00003f30 37363636  6670?.....?07666
 0b50 3636f700 ff000000 0000ff00 f7363636  66...........666
 0b60 36363730 37363636 0000ff00 ff000000  66707666........
 0b70 3636f700 f7363636 1818ff00 ff000000  66...666........
 0b80 36363636 ff000000 0000ff00 ff181818  6666............
 0b90 00000000 ff363636 36363636 3f000000  .....6666666?...
 0ba0 18181f18 1f000000 00001f18 1f181818  ................
 0bb0 00000000 3f363636 36363636 ff363636  ....?6666666.666
 0bc0 1818ff18 ff181818 18181818 f8000000  ................
 0bd0 00000000 1f181818 ffffffff ffffffff  ................
 0be0 00000000 ffffffff f0f0f0f0 f0f0f0f0  ................
 0bf0 0f0f0f0f 0f0f0f0f ffffffff 00000000  ................
 0c00 000076dc c8dc7600 78ccccd8 ccc6cc00  ..v...v.x.......
 0c10 fec6c0c0 c0c0c000 0000fe6c 6c6c6c00  ...........llll.
 0c20 fec66030 60c6fe00 00007ed8 d8d87000  ..`0`.....~...p.
 0c30 00006666 66667cc0 0076dc18 18181800  ..ffff|..v......
 0c40 7e183c66 663c187e 386cc6fe c66c3800  ~.<ff<.~8l...l8.
 0c50 386cc6c6 6c6cee00 0e180c3e 66663c00  8l..ll.....>ff<.
 0c60 00007edb db7e0000 060c7edb db7e60c0  ..~..~....~..~`.
 0c70 1e30607e 60301e00 007cc6c6 c6c6c600  .0`~`0...|......
 0c80 00fe00fe 00fe0000 18187e18 18007e00  ..........~...~.
 0c90 30180c18 30007e00 0c183018 0c007e00  0...0.~...0...~.
 0ca0 0e1b1b18 18181818 18181818 18d8d870  ...............p
 0cb0 0018007e 00180000 0076dc00 76dc0000  ...~.....v..v...
 0cc0 386c6c38 00000000 00000018 18000000  8ll8............
 0cd0 00000018 00000000 0f0c0c0c ec6c3c1c  .............l<.
 0ce0 6c363636 36000000 780c1830 7c000000  l6666...x..0|...
 0cf0 00003c3c 3c3c0000 00000000 00000000  ..<<<<..........
 0d00 5b4f5320 45537973 5f692e30 2e325d0a  [OS ESys_i.0.2].
 0d10 42726965 66207265 706f7274 206f6e20  Brief report on 
 0d20 73797374 656d2773 20616374 75616c20  system's actual 
 0d30 73746174 653a0a00 00000000 00000000  state:..........
 0d40 434f4d31 3a203136 35353041 2d636f6d  COM1: 16550A-com
 0d50 702e2055 41525420 61742061 62732e20  p. UART at abs. 
 0d60 61646472 65737330 78334638 2c20706f  address0x3F8, po
 0d70 6c6c696e 6720286e 6f20696e 74657272  lling (no interr
 0d80 75707473 292e0a0a 494e5445 52525550  upts)...INTERRUP
 0d90 54533a20 66726f6d 20383235 39412063  TS: from 8259A c
 0da0 2e692e63 2e207374 61727465 6420696e  .i.c. started in
 0db0 2070726f 74656374 6564206d 6f646520   protected mode 
 0dc0 28657665 72792069 6e746572 72757074  (every interrupt
 0dd0 20697373 75656420 62792073 65636f6e   issued by secon
 0de0 64206361 73636164 65642065 6e746974  d cascaded entit
 0df0 79207265 67617264 65642061 73737973  y regarded assys
 0e00 2e74696d 65722069 6e746572 72757074  .timer interrupt
 0e10 290a0a44 4953504c 41593a20 67726170  )..DISPLAY: grap
 0e20 6869632c 20333230 78323430 20706978  hic, 320x240 pix
 0e30 656c732c 20323536 20636f6c 6f72733b  els, 256 colors;
 0e40 20646966 66657265 6e742076 6964656f   different video
 0e50 6d6f6465 73206172 65206176 61696c61  modes are availa
 0e60 626c6520 28696e63 6c756469 6e672074  ble (including t
 0e70 65787420 6d6f6465 20383078 3235290a  ext mode 80x25).
 0e80 0a4d454d 4f52593a 20393030 30302020  .MEMORY: 90000  
 0e90 2d203930 32303020 202d2072 65736574  - 90200  - reset
 0ea0 20736563 74696f6e 0a202020 20202020   section.       
 0eb0 20393032 30302020 2d203946 46464620   90200  - 9FFFF 
 0ec0 202d206b 65726e65 6c0a2020 20202020   - kernel.      
 0ed0 20204130 30303020 202d2041 46464646    A0000  - AFFFF
 0ee0 20202d20 76696465 6f205241 4d0a2020    - video RAM.  
 0ef0 20202020 20203230 30303030 202d2032        200000 - 2
 0f00 30323030 30202d20 73746163 6b0a2020  02000 - stack.  
 0f10 20202020 20203230 32303030 202d2038        202000 - 8
 0f20 30303030 30202d20 68656170 0a0a5052  00000 - heap..PR
 0f30 4f434553 5345533a 20737973 74656d20  OCESSES: system 
 0f40 72756e73 2073696e 676c6520 70726f63  runs single proc
 0f50 65737320 6f726761 6e697a65 64206173  ess organized as
 0f60 206c696e 65617220 63686169 6e206f66   linear chain of
 0f70 2063616c 6c626163 6b733b20 75736520   callbacks; use 
 0f80 5f556e63 68616943 616c6c62 61636b46  _UnchaiCallbackF
 0f90 726f6d43 616c6c62 61636b6c 69737428  romCallbacklist(
 0fa0 2920746f 20656c69 6d696e61 74652063  ) to eliminate c
 0fb0 616c6c62 61636b20 66726f6d 2070726f  allback from pro
 0fc0 63657373 20636861 696e3b20 75736520  cess chain; use 
 0fd0 584d4f44 454d2d75 706c6f61 64206d65  XMODEM-upload me
 0fe0 6368616e 697a6d20 746f2061 64642063  chanizm to add c
 0ff0 616c6c62 61636b20 746f2070 726f6365  allback to proce
 1000 73732063 6861696e 0a0a5052 4f544f43  ss chain..PROTOC
 1010 4f4c533a 20584d4f 44454d20 65636861  OLS: XMODEM echa
 1020 6e676520 70726f74 6f636f6c 206f7665  nge protocol ove
 1030 72736572 69616c20 6c696e65 20617661  rserial line ava
 1040 696c6162 6c652069 6e207468 65207379  ilable in the sy
 1050 7374656d 205b2e5d 00                 stem [.].       
Contents of section .comment:
 0000 00474343 3a202847 4e552920 332e322e  .GCC: (GNU) 3.2.
 0010 32203230 30333032 32322028 52656420  2 20030222 (Red 
 0020 48617420 4c696e75 7820332e 322e322d  Hat Linux 3.2.2-
 0030 352900                               5).             
Disassembly of section .text:

00000100 <_fn_4>:
 100:	55                   	push   %ebp
 101:	89 e5                	mov    %esp,%ebp
 103:	83 ec 38             	sub    $0x38,%esp
 106:	89 c0                	mov    %eax,%eax
 108:	89 45 f8             	mov    %eax,0xfffffff8(%ebp)
 10b:	8b 45 f8             	mov    0xfffffff8(%ebp),%eax
 10e:	05 00 04 00 00       	add    $0x400,%eax
 113:	89 45 fc             	mov    %eax,0xfffffffc(%ebp)
 116:	83 ec 0c             	sub    $0xc,%esp
 119:	6a 00                	push   $0x0
 11b:	8b 45 10             	mov    0x10(%ebp),%eax
 11e:	ff d0                	call   *%eax
 120:	83 c4 10             	add    $0x10,%esp
 123:	c7 45 f0 00 00 00 00 	movl   $0x0,0xfffffff0(%ebp)
 12a:	81 7d f0 3f 01 00 00 	cmpl   $0x13f,0xfffffff0(%ebp)
 131:	7e 02                	jle    135 <_fn_4+0x35>
 133:	eb 31                	jmp    166 <_fn_4+0x66>
 135:	c7 45 ec 00 00 00 00 	movl   $0x0,0xffffffec(%ebp)
 13c:	81 7d ec ef 00 00 00 	cmpl   $0xef,0xffffffec(%ebp)
 143:	7e 02                	jle    147 <_fn_4+0x47>
 145:	eb 18                	jmp    15f <_fn_4+0x5f>
 147:	83 ec 08             	sub    $0x8,%esp
 14a:	ff 75 ec             	pushl  0xffffffec(%ebp)
 14d:	ff 75 f0             	pushl  0xfffffff0(%ebp)
 150:	8b 45 14             	mov    0x14(%ebp),%eax
 153:	ff d0                	call   *%eax
 155:	83 c4 10             	add    $0x10,%esp
 158:	8d 45 ec             	lea    0xffffffec(%ebp),%eax
 15b:	ff 00                	incl   (%eax)
 15d:	eb dd                	jmp    13c <_fn_4+0x3c>
 15f:	8d 45 f0             	lea    0xfffffff0(%ebp),%eax
 162:	ff 00                	incl   (%eax)
 164:	eb c4                	jmp    12a <_fn_4+0x2a>
 166:	c7 45 ec 00 00 00 00 	movl   $0x0,0xffffffec(%ebp)
 16d:	c7 45 e4 00 00 00 00 	movl   $0x0,0xffffffe4(%ebp)
 174:	c7 45 e0 00 00 00 00 	movl   $0x0,0xffffffe0(%ebp)
 17b:	81 7d f8 00 f4 ff ff 	cmpl   $0xfffff400,0xfffffff8(%ebp)
 182:	74 0f                	je     193 <_fn_4+0x93>
 184:	83 ec 0c             	sub    $0xc,%esp
 187:	6a 0e                	push   $0xe
 189:	8b 45 10             	mov    0x10(%ebp),%eax
 18c:	ff d0                	call   *%eax
 18e:	83 c4 10             	add    $0x10,%esp
 191:	eb 05                	jmp    198 <_fn_4+0x98>
 193:	e9 f9 01 00 00       	jmp    391 <_fn_4+0x291>
 198:	90                   	nop    
 199:	8b 45 e0             	mov    0xffffffe0(%ebp),%eax
 19c:	03 45 f8             	add    0xfffffff8(%ebp),%eax
 19f:	05 00 0c 00 00       	add    $0xc00,%eax
 1a4:	8a 10                	mov    (%eax),%dl
 1a6:	88 55 eb             	mov    %dl,0xffffffeb(%ebp)
 1a9:	8d 45 e0             	lea    0xffffffe0(%ebp),%eax
 1ac:	ff 00                	incl   (%eax)
 1ae:	84 d2                	test   %dl,%dl
 1b0:	75 05                	jne    1b7 <_fn_4+0xb7>
 1b2:	e9 99 00 00 00       	jmp    250 <_fn_4+0x150>
 1b7:	80 7d eb 0a          	cmpb   $0xa,0xffffffeb(%ebp)
 1bb:	74 0b                	je     1c8 <_fn_4+0xc8>
 1bd:	81 7d ec 37 01 00 00 	cmpl   $0x137,0xffffffec(%ebp)
 1c4:	7f 02                	jg     1c8 <_fn_4+0xc8>
 1c6:	eb 0d                	jmp    1d5 <_fn_4+0xd5>
 1c8:	8d 45 e4             	lea    0xffffffe4(%ebp),%eax
 1cb:	83 00 08             	addl   $0x8,(%eax)
 1ce:	c7 45 ec 00 00 00 00 	movl   $0x0,0xffffffec(%ebp)
 1d5:	80 7d eb 0a          	cmpb   $0xa,0xffffffeb(%ebp)
 1d9:	74 be                	je     199 <_fn_4+0x99>
 1db:	c7 45 dc 00 00 00 00 	movl   $0x0,0xffffffdc(%ebp)
 1e2:	83 7d dc 07          	cmpl   $0x7,0xffffffdc(%ebp)
 1e6:	7e 02                	jle    1ea <_fn_4+0xea>
 1e8:	eb 5b                	jmp    245 <_fn_4+0x145>
 1ea:	c7 45 d8 00 00 00 00 	movl   $0x0,0xffffffd8(%ebp)
 1f1:	83 7d d8 07          	cmpl   $0x7,0xffffffd8(%ebp)
 1f5:	7e 02                	jle    1f9 <_fn_4+0xf9>
 1f7:	eb 45                	jmp    23e <_fn_4+0x13e>
 1f9:	0f be 45 eb          	movsbl 0xffffffeb(%ebp),%eax
 1fd:	c1 e0 03             	shl    $0x3,%eax
 200:	03 45 dc             	add    0xffffffdc(%ebp),%eax
 203:	03 45 fc             	add    0xfffffffc(%ebp),%eax
 206:	0f b6 10             	movzbl (%eax),%edx
 209:	b8 07 00 00 00       	mov    $0x7,%eax
 20e:	89 c1                	mov    %eax,%ecx
 210:	2b 4d d8             	sub    0xffffffd8(%ebp),%ecx
 213:	89 d0                	mov    %edx,%eax
 215:	d3 f8                	sar    %cl,%eax
 217:	83 e0 01             	and    $0x1,%eax
 21a:	85 c0                	test   %eax,%eax
 21c:	74 19                	je     237 <_fn_4+0x137>
 21e:	83 ec 08             	sub    $0x8,%esp
 221:	8b 45 dc             	mov    0xffffffdc(%ebp),%eax
 224:	03 45 e4             	add    0xffffffe4(%ebp),%eax
 227:	50                   	push   %eax
 228:	8b 45 d8             	mov    0xffffffd8(%ebp),%eax
 22b:	03 45 ec             	add    0xffffffec(%ebp),%eax
 22e:	50                   	push   %eax
 22f:	8b 45 14             	mov    0x14(%ebp),%eax
 232:	ff d0                	call   *%eax
 234:	83 c4 10             	add    $0x10,%esp
 237:	8d 45 d8             	lea    0xffffffd8(%ebp),%eax
 23a:	ff 00                	incl   (%eax)
 23c:	eb b3                	jmp    1f1 <_fn_4+0xf1>
 23e:	8d 45 dc             	lea    0xffffffdc(%ebp),%eax
 241:	ff 00                	incl   (%eax)
 243:	eb 9d                	jmp    1e2 <_fn_4+0xe2>
 245:	8d 45 ec             	lea    0xffffffec(%ebp),%eax
 248:	83 00 08             	addl   $0x8,(%eax)
 24b:	e9 49 ff ff ff       	jmp    199 <_fn_4+0x99>
 250:	8b 45 f8             	mov    0xfffffff8(%ebp),%eax
 253:	05 00 0c 00 00       	add    $0xc00,%eax
 258:	89 45 d8             	mov    %eax,0xffffffd8(%ebp)
 25b:	8b 45 f8             	mov    0xfffffff8(%ebp),%eax
 25e:	05 00 0c 00 00       	add    $0xc00,%eax
 263:	89 45 dc             	mov    %eax,0xffffffdc(%ebp)
 266:	8b 45 d8             	mov    0xffffffd8(%ebp),%eax
 269:	89 45 dc             	mov    %eax,0xffffffdc(%ebp)
 26c:	c7 45 e0 00 00 00 00 	movl   $0x0,0xffffffe0(%ebp)
 273:	8b 45 dc             	mov    0xffffffdc(%ebp),%eax
 276:	80 38 00             	cmpb   $0x0,(%eax)
 279:	75 02                	jne    27d <_fn_4+0x17d>
 27b:	eb 0c                	jmp    289 <_fn_4+0x189>
 27d:	8d 45 dc             	lea    0xffffffdc(%ebp),%eax
 280:	ff 00                	incl   (%eax)
 282:	8d 45 e0             	lea    0xffffffe0(%ebp),%eax
 285:	ff 00                	incl   (%eax)
 287:	eb ea                	jmp    273 <_fn_4+0x173>
 289:	8d 45 e0             	lea    0xffffffe0(%ebp),%eax
 28c:	83 00 1f             	addl   $0x1f,(%eax)
 28f:	8d 45 e0             	lea    0xffffffe0(%ebp),%eax
 292:	83 20 e0             	andl   $0xffffffe0,(%eax)
 295:	8b 45 e0             	mov    0xffffffe0(%ebp),%eax
 298:	89 45 f4             	mov    %eax,0xfffffff4(%ebp)
 29b:	c7 45 d8 00 00 00 00 	movl   $0x0,0xffffffd8(%ebp)
 2a2:	c7 45 dc 18 00 00 00 	movl   $0x18,0xffffffdc(%ebp)
 2a9:	c7 45 e0 00 00 00 00 	movl   $0x0,0xffffffe0(%ebp)
 2b0:	8b 45 f4             	mov    0xfffffff4(%ebp),%eax
 2b3:	03 45 f8             	add    0xfffffff8(%ebp),%eax
 2b6:	3d 00 f4 ff ff       	cmp    $0xfffff400,%eax
 2bb:	74 0f                	je     2cc <_fn_4+0x1cc>
 2bd:	83 ec 0c             	sub    $0xc,%esp
 2c0:	6a 02                	push   $0x2
 2c2:	8b 45 10             	mov    0x10(%ebp),%eax
 2c5:	ff d0                	call   *%eax
 2c7:	83 c4 10             	add    $0x10,%esp
 2ca:	eb 05                	jmp    2d1 <_fn_4+0x1d1>
 2cc:	e9 c0 00 00 00       	jmp    391 <_fn_4+0x291>
 2d1:	90                   	nop    
 2d2:	8b 45 f4             	mov    0xfffffff4(%ebp),%eax
 2d5:	8b 55 f8             	mov    0xfffffff8(%ebp),%edx
 2d8:	01 c2                	add    %eax,%edx
 2da:	8b 45 e0             	mov    0xffffffe0(%ebp),%eax
 2dd:	8d 04 10             	lea    (%eax,%edx,1),%eax
 2e0:	05 00 0c 00 00       	add    $0xc00,%eax
 2e5:	8a 10                	mov    (%eax),%dl
 2e7:	88 55 eb             	mov    %dl,0xffffffeb(%ebp)
 2ea:	8d 45 e0             	lea    0xffffffe0(%ebp),%eax
 2ed:	ff 00                	incl   (%eax)
 2ef:	84 d2                	test   %dl,%dl
 2f1:	75 05                	jne    2f8 <_fn_4+0x1f8>
 2f3:	e9 99 00 00 00       	jmp    391 <_fn_4+0x291>
 2f8:	80 7d eb 0a          	cmpb   $0xa,0xffffffeb(%ebp)
 2fc:	74 0b                	je     309 <_fn_4+0x209>
 2fe:	81 7d d8 37 01 00 00 	cmpl   $0x137,0xffffffd8(%ebp)
 305:	7f 02                	jg     309 <_fn_4+0x209>
 307:	eb 0d                	jmp    316 <_fn_4+0x216>
 309:	8d 45 dc             	lea    0xffffffdc(%ebp),%eax
 30c:	83 00 08             	addl   $0x8,(%eax)
 30f:	c7 45 d8 00 00 00 00 	movl   $0x0,0xffffffd8(%ebp)
 316:	80 7d eb 0a          	cmpb   $0xa,0xffffffeb(%ebp)
 31a:	74 b6                	je     2d2 <_fn_4+0x1d2>
 31c:	c7 45 ec 00 00 00 00 	movl   $0x0,0xffffffec(%ebp)
 323:	83 7d ec 07          	cmpl   $0x7,0xffffffec(%ebp)
 327:	7e 02                	jle    32b <_fn_4+0x22b>
 329:	eb 5b                	jmp    386 <_fn_4+0x286>
 32b:	c7 45 e4 00 00 00 00 	movl   $0x0,0xffffffe4(%ebp)
 332:	83 7d e4 07          	cmpl   $0x7,0xffffffe4(%ebp)
 336:	7e 02                	jle    33a <_fn_4+0x23a>
 338:	eb 45                	jmp    37f <_fn_4+0x27f>
 33a:	0f be 45 eb          	movsbl 0xffffffeb(%ebp),%eax
 33e:	c1 e0 03             	shl    $0x3,%eax
 341:	03 45 ec             	add    0xffffffec(%ebp),%eax
 344:	03 45 fc             	add    0xfffffffc(%ebp),%eax
 347:	0f b6 10             	movzbl (%eax),%edx
 34a:	b8 07 00 00 00       	mov    $0x7,%eax
 34f:	89 c1                	mov    %eax,%ecx
 351:	2b 4d e4             	sub    0xffffffe4(%ebp),%ecx
 354:	89 d0                	mov    %edx,%eax
 356:	d3 f8                	sar    %cl,%eax
 358:	83 e0 01             	and    $0x1,%eax
 35b:	85 c0                	test   %eax,%eax
 35d:	74 19                	je     378 <_fn_4+0x278>
 35f:	83 ec 08             	sub    $0x8,%esp
 362:	8b 45 ec             	mov    0xffffffec(%ebp),%eax
 365:	03 45 dc             	add    0xffffffdc(%ebp),%eax
 368:	50                   	push   %eax
 369:	8b 45 e4             	mov    0xffffffe4(%ebp),%eax
 36c:	03 45 d8             	add    0xffffffd8(%ebp),%eax
 36f:	50                   	push   %eax
 370:	8b 45 14             	mov    0x14(%ebp),%eax
 373:	ff d0                	call   *%eax
 375:	83 c4 10             	add    $0x10,%esp
 378:	8d 45 e4             	lea    0xffffffe4(%ebp),%eax
 37b:	ff 00                	incl   (%eax)
 37d:	eb b3                	jmp    332 <_fn_4+0x232>
 37f:	8d 45 ec             	lea    0xffffffec(%ebp),%eax
 382:	ff 00                	incl   (%eax)
 384:	eb 9d                	jmp    323 <_fn_4+0x223>
 386:	8d 45 d8             	lea    0xffffffd8(%ebp),%eax
 389:	83 00 08             	addl   $0x8,(%eax)
 38c:	e9 41 ff ff ff       	jmp    2d2 <_fn_4+0x1d2>
 391:	8b 45 d4             	mov    0xffffffd4(%ebp),%eax
 394:	c9                   	leave  
 395:	c3                   	ret    